; Function Attrs: mustprogress uwtable
define void @_ZNK5arrow18RunEndEncodedArray13LogicalValuesEv(ptr dead_on_unwind noalias writable sret(%"class.std::shared_ptr.7") align 8 %0, ptr noundef nonnull readonly align 8 captures(none) dereferenceable(64) %1) local_unnamed_addr #1 align 2 personality ptr @__gxx_personality_v0 {
  %3 = alloca %"class.std::shared_ptr", align 8
  %4 = tail call noundef i64 @_ZNK5arrow18RunEndEncodedArray18FindPhysicalOffsetEv(ptr noundef nonnull align 8 dereferenceable(64) %1)
  %5 = tail call noundef i64 @_ZNK5arrow18RunEndEncodedArray18FindPhysicalLengthEv(ptr noundef nonnull align 8 dereferenceable(64) %1)
  call void @llvm.lifetime.start.p0(i64 16, ptr nonnull %3) #19
  %6 = getelementptr inbounds nuw i8, ptr %1, i64 8
  %7 = load ptr, ptr %6, align 8, !tbaa !34
  %8 = getelementptr inbounds nuw i8, ptr %7, i64 64
  %9 = load ptr, ptr %8, align 8, !tbaa !63
  %10 = getelementptr inbounds nuw i8, ptr %9, i64 16
  %11 = load ptr, ptr %10, align 8, !tbaa !34
  call void @_ZNK5arrow9ArrayData5SliceEll(ptr dead_on_unwind nonnull writable sret(%"class.std::shared_ptr") align 8 %3, ptr noundef nonnull align 8 dereferenceable(120) %11, i64 noundef %4, i64 noundef %5)
  invoke void @_ZN5arrow9MakeArrayERKSt10shared_ptrINS_9ArrayDataEE(ptr dead_on_unwind writable sret(%"class.std::shared_ptr.7") align 8 %0, ptr noundef nonnull align 8 dereferenceable(16) %3)
          to label %12 unwind label %36

12:                                               ; preds = %2
  %13 = getelementptr inbounds nuw i8, ptr %3, i64 8
  %14 = load ptr, ptr %13, align 8, !tbaa !71
  %.not.i.i = icmp eq ptr %14, null
  br i1 %.not.i.i, label %_ZNSt12__shared_ptrIN5arrow9ArrayDataELN9__gnu_cxx12_Lock_policyE2EED2Ev.exit, label %15

15:                                               ; preds = %12
  %16 = getelementptr inbounds nuw i8, ptr %14, i64 8
  %17 = load atomic i64, ptr %16 acquire, align 8
  %18 = icmp eq i64 %17, 4294967297
  %19 = trunc i64 %17 to i32
  br i1 %18, label %20, label %28

20:                                               ; preds = %15
  store i32 0, ptr %16, align 8, !tbaa !73
  %21 = getelementptr inbounds nuw i8, ptr %14, i64 12
  store i32 0, ptr %21, align 4, !tbaa !75
  %22 = load ptr, ptr %14, align 8, !tbaa !32
  %23 = getelementptr inbounds nuw i8, ptr %22, i64 16
  %24 = load ptr, ptr %23, align 8
  call void %24(ptr noundef nonnull align 8 dereferenceable(16) %14) #19
  %25 = load ptr, ptr %14, align 8, !tbaa !32
  %26 = getelementptr inbounds nuw i8, ptr %25, i64 24
  %27 = load ptr, ptr %26, align 8
  call void %27(ptr noundef nonnull align 8 dereferenceable(16) %14) #19
  br label %_ZNSt12__shared_ptrIN5arrow9ArrayDataELN9__gnu_cxx12_Lock_policyE2EED2Ev.exit

28:                                               ; preds = %15
  %29 = load i8, ptr @__libc_single_threaded, align 1, !tbaa !76
  %.not.i.i.i = icmp eq i8 %29, 0
  br i1 %.not.i.i.i, label %32, label %30

30:                                               ; preds = %28
  %31 = add nsw i32 %19, -1
  store i32 %31, ptr %16, align 4, !tbaa !77
  br label %_ZN9__gnu_cxx27__exchange_and_add_dispatchEPii.exit.i.i.i

32:                                               ; preds = %28
  %33 = atomicrmw volatile add ptr %16, i32 -1 acq_rel, align 4
  br label %_ZN9__gnu_cxx27__exchange_and_add_dispatchEPii.exit.i.i.i

_ZN9__gnu_cxx27__exchange_and_add_dispatchEPii.exit.i.i.i: ; preds = %32, %30
  %.0.i.i.i.i = phi i32 [ %19, %30 ], [ %33, %32 ]
  %34 = icmp eq i32 %.0.i.i.i.i, 1
  br i1 %34, label %35, label %_ZNSt12__shared_ptrIN5arrow9ArrayDataELN9__gnu_cxx12_Lock_policyE2EED2Ev.exit, !prof !78

35:                                               ; preds = %_ZN9__gnu_cxx27__exchange_and_add_dispatchEPii.exit.i.i.i
  call void @_ZNSt16_Sp_counted_baseILN9__gnu_cxx12_Lock_policyE2EE24_M_release_last_use_coldEv(ptr noundef nonnull align 8 dereferenceable(16) %14) #19
  br label %_ZNSt12__shared_ptrIN5arrow9ArrayDataELN9__gnu_cxx12_Lock_policyE2EED2Ev.exit

_ZNSt12__shared_ptrIN5arrow9ArrayDataELN9__gnu_cxx12_Lock_policyE2EED2Ev.exit: ; preds = %12, %20, %_ZN9__gnu_cxx27__exchange_and_add_dispatchEPii.exit.i.i.i, %35
  call void @llvm.lifetime.end.p0(i64 16, ptr nonnull %3) #19
  ret void

36:                                               ; preds = %2
  %37 = landingpad { ptr, i32 }
          cleanup
  call void @_ZNSt12__shared_ptrIN5arrow9ArrayDataELN9__gnu_cxx12_Lock_policyE2EED2Ev(ptr noundef nonnull align 8 dereferenceable(16) %3) #19
  call void @llvm.lifetime.end.p0(i64 16, ptr nonnull %3) #19
  resume { ptr, i32 } %37
}